; Function Attrs: nofree norecurse nosync nounwind memory(argmem: read) uwtable
define dso_local zeroext i16 @_hash_binsearch_last(ptr noundef readonly captures(none) %0, i32 noundef %1) local_unnamed_addr #5 {
  %3 = getelementptr i8, ptr %0, i64 12
  %.val = load i16, ptr %3, align 4
  %4 = icmp ult i16 %.val, 25
  %5 = zext i16 %.val to i32
  %6 = add nuw nsw i32 %5, 262120
  %7 = lshr i32 %6, 2
  %8 = trunc i32 %7 to i16
  %.not20 = icmp eq i16 %8, 0
  %.not = select i1 %4, i1 true, i1 %.not20
  br i1 %.not, label %._crit_edge, label %.lr.ph

.lr.ph:                                           ; preds = %2
  %9 = getelementptr inbounds nuw i8, ptr %0, i64 24
  br label %10

10:                                               ; preds = %.lr.ph, %10
  %.019 = phi i16 [ %8, %.lr.ph ], [ %.1, %10 ]
  %.01318 = phi i16 [ 0, %.lr.ph ], [ %.114, %10 ]
  %11 = zext i16 %.01318 to i32
  %12 = zext nneg i16 %.019 to i32
  %13 = add nuw nsw i32 %11, 1
  %14 = add nuw nsw i32 %13, %12
  %15 = lshr i32 %14, 1
  %16 = trunc nuw i32 %15 to i16
  %17 = zext nneg i32 %15 to i64
  %18 = add nsw i64 %17, -1
  %19 = getelementptr inbounds [0 x %struct.ItemIdData], ptr %9, i64 0, i64 %18
  %.val17 = load i32, ptr %19, align 4
  %20 = and i32 %.val17, 32767
  %21 = zext nneg i32 %20 to i64
  %22 = getelementptr inbounds nuw i8, ptr %0, i64 %21
  %23 = getelementptr inbounds nuw i8, ptr %22, i64 6
  %24 = load i16, ptr %23, align 2
  %.not.i.i = icmp sgt i16 %24, -1
  %..i.i = select i1 %.not.i.i, i64 8, i64 16
  %25 = getelementptr inbounds nuw i8, ptr %22, i64 %..i.i
  %26 = load i32, ptr %25, align 4
  %27 = icmp ugt i32 %26, %1
  %28 = add i16 %16, -1
  %.114 = select i1 %27, i16 %.01318, i16 %16
  %.1 = select i1 %27, i16 %28, i16 %.019
  %29 = icmp ugt i16 %.1, %.114
  br i1 %29, label %10, label %._crit_edge, !llvm.loop !8

._crit_edge:                                      ; preds = %10, %2
  %.013.lcssa = phi i16 [ 0, %2 ], [ %.114, %10 ]
  ret i16 %.013.lcssa
}